Archive member included because of file (symbol)

/usr/local/Cellar/avr-gcc/4.7.2/lib/gcc/avr/4.7.2/avr25/tiny-stack/libgcc.a(_exit.o)
                              ambient-attx4.o (_exit)
/usr/local/Cellar/avr-gcc/4.7.2/lib/gcc/avr/4.7.2/avr25/tiny-stack/libgcc.a(_copy_data.o)
                              ambient-attx4.o (__do_copy_data)
/usr/local/Cellar/avr-gcc/4.7.2/lib/gcc/avr/4.7.2/avr25/tiny-stack/libgcc.a(_clear_bss.o)
                              ambient-attx4.o (__do_clear_bss)

Allocating common symbols
Common symbol       size              file

LightBuffer         0x15              ambient-attx4.o
SoundBuffer         0x15              ambient-attx4.o
storedUSIDR         0x1               ambient-attx4.o
spiX_status         0x1               ambient-attx4.o

Memory Configuration

Name             Origin             Length             Attributes
text             0x0000000000000000 0x0000000000002000 xr
data             0x0000000000800060 0x000000000000ffa0 rw !x
eeprom           0x0000000000810000 0x0000000000010000 rw !x
fuse             0x0000000000820000 0x0000000000000400 rw !x
lock             0x0000000000830000 0x0000000000000400 rw !x
signature        0x0000000000840000 0x0000000000000400 rw !x
*default*        0x0000000000000000 0xffffffffffffffff

Linker script and memory map

LOAD /usr/local/Cellar/avr-gcc/4.7.2/lib/gcc/avr/4.7.2/../../../../avr/lib/crttn24.o
LOAD ambient-attx4.o
LOAD /usr/local/Cellar/avr-gcc/4.7.2/lib/gcc/avr/4.7.2/../../../../avr/lib/libm.a
LOAD /usr/local/Cellar/avr-gcc/4.7.2/lib/gcc/avr/4.7.2/avr25/tiny-stack/libgcc.a
LOAD /usr/local/Cellar/avr-gcc/4.7.2/lib/gcc/avr/4.7.2/../../../../avr/lib/libc.a
LOAD /usr/local/Cellar/avr-gcc/4.7.2/lib/gcc/avr/4.7.2/avr25/tiny-stack/libgcc.a

.hash
 *(.hash)

.dynsym
 *(.dynsym)

.dynstr
 *(.dynstr)

.gnu.version
 *(.gnu.version)

.gnu.version_d
 *(.gnu.version_d)

.gnu.version_r
 *(.gnu.version_r)

.rel.init
 *(.rel.init)

.rela.init
 *(.rela.init)

.rel.text
 *(.rel.text)
 *(.rel.text.*)
 *(.rel.gnu.linkonce.t*)

.rela.text
 *(.rela.text)
 *(.rela.text.*)
 *(.rela.gnu.linkonce.t*)

.rel.fini
 *(.rel.fini)

.rela.fini
 *(.rela.fini)

.rel.rodata
 *(.rel.rodata)
 *(.rel.rodata.*)
 *(.rel.gnu.linkonce.r*)

.rela.rodata
 *(.rela.rodata)
 *(.rela.rodata.*)
 *(.rela.gnu.linkonce.r*)

.rel.data
 *(.rel.data)
 *(.rel.data.*)
 *(.rel.gnu.linkonce.d*)

.rela.data
 *(.rela.data)
 *(.rela.data.*)
 *(.rela.gnu.linkonce.d*)

.rel.ctors
 *(.rel.ctors)

.rela.ctors
 *(.rela.ctors)

.rel.dtors
 *(.rel.dtors)

.rela.dtors
 *(.rela.dtors)

.rel.got
 *(.rel.got)

.rela.got
 *(.rela.got)

.rel.bss
 *(.rel.bss)

.rela.bss
 *(.rela.bss)

.rel.plt
 *(.rel.plt)

.rela.plt
 *(.rela.plt)

.text           0x0000000000000000      0x5be
 *(.vectors)
 .vectors       0x0000000000000000       0x22 /usr/local/Cellar/avr-gcc/4.7.2/lib/gcc/avr/4.7.2/../../../../avr/lib/crttn24.o
                0x0000000000000000                __vectors
                0x0000000000000000                __vector_default
 *(.vectors)
 *(.progmem.gcc*)
 .progmem.gcc_sw_table
                0x0000000000000022       0x10 ambient-attx4.o
 *(.progmem*)
                0x0000000000000032                . = ALIGN (0x2)
                0x0000000000000032                __trampolines_start = .
 *(.trampolines)
 .trampolines   0x0000000000000032        0x0 linker stubs
 *(.trampolines*)
                0x0000000000000032                __trampolines_end = .
 *(.jumptables)
 *(.jumptables*)
 *(.lowtext)
 *(.lowtext*)
                0x0000000000000032                __ctors_start = .
 *(.ctors)
                0x0000000000000032                __ctors_end = .
                0x0000000000000032                __dtors_start = .
 *(.dtors)
                0x0000000000000032                __dtors_end = .
 SORT(*)(.ctors)
 SORT(*)(.dtors)
 *(.init0)
 .init0         0x0000000000000032        0x0 /usr/local/Cellar/avr-gcc/4.7.2/lib/gcc/avr/4.7.2/../../../../avr/lib/crttn24.o
                0x0000000000000032                __init
 *(.init0)
 *(.init1)
 *(.init1)
 *(.init2)
 .init2         0x0000000000000032        0x8 /usr/local/Cellar/avr-gcc/4.7.2/lib/gcc/avr/4.7.2/../../../../avr/lib/crttn24.o
 *(.init2)
 *(.init3)
 *(.init3)
 *(.init4)
 .init4         0x000000000000003a       0x16 /usr/local/Cellar/avr-gcc/4.7.2/lib/gcc/avr/4.7.2/avr25/tiny-stack/libgcc.a(_copy_data.o)
                0x000000000000003a                __do_copy_data
 .init4         0x0000000000000050       0x10 /usr/local/Cellar/avr-gcc/4.7.2/lib/gcc/avr/4.7.2/avr25/tiny-stack/libgcc.a(_clear_bss.o)
                0x0000000000000050                __do_clear_bss
 *(.init4)
 *(.init5)
 *(.init5)
 *(.init6)
 *(.init6)
 *(.init7)
 *(.init7)
 *(.init8)
 *(.init8)
 *(.init9)
 .init9         0x0000000000000060        0x4 /usr/local/Cellar/avr-gcc/4.7.2/lib/gcc/avr/4.7.2/../../../../avr/lib/crttn24.o
 *(.init9)
 *(.text)
 .text          0x0000000000000064        0x2 /usr/local/Cellar/avr-gcc/4.7.2/lib/gcc/avr/4.7.2/../../../../avr/lib/crttn24.o
                0x0000000000000064                __vector_10
                0x0000000000000064                __bad_interrupt
                0x0000000000000064                __vector_3
                0x0000000000000064                __vector_11
                0x0000000000000064                __vector_13
                0x0000000000000064                __vector_7
                0x0000000000000064                __vector_5
                0x0000000000000064                __vector_4
                0x0000000000000064                __vector_2
                0x0000000000000064                __vector_15
                0x0000000000000064                __vector_8
                0x0000000000000064                __vector_14
                0x0000000000000064                __vector_12
 .text          0x0000000000000066      0x53e ambient-attx4.o
                0x0000000000000066                __vector_9
                0x000000000000007c                __vector_16
                0x00000000000000b6                spiX_initmaster
                0x00000000000000fa                spiX_initslave
                0x0000000000000136                spiX_put
                0x0000000000000184                spiX_get
                0x000000000000018a                spiX_wait
                0x0000000000000194                setupIO
                0x00000000000001a0                enableSPI
                0x00000000000001b4                setupTimer
                0x00000000000001cc                prepareADC
                0x00000000000001de                setup
                0x00000000000001f4                analogRead
                0x000000000000021a                bufferForCommand
                0x0000000000000236                triggerValueForCommand
                0x0000000000000248                __vector_6
                0x0000000000000380                __vector_1
                0x0000000000000554                crc16
 .text          0x00000000000005a4        0x0 /usr/local/Cellar/avr-gcc/4.7.2/lib/gcc/avr/4.7.2/avr25/tiny-stack/libgcc.a(_exit.o)
 .text          0x00000000000005a4        0x0 /usr/local/Cellar/avr-gcc/4.7.2/lib/gcc/avr/4.7.2/avr25/tiny-stack/libgcc.a(_copy_data.o)
 .text          0x00000000000005a4        0x0 /usr/local/Cellar/avr-gcc/4.7.2/lib/gcc/avr/4.7.2/avr25/tiny-stack/libgcc.a(_clear_bss.o)
                0x00000000000005a4                . = ALIGN (0x2)
 *(.text.*)
 .text.startup  0x00000000000005a4       0x16 ambient-attx4.o
                0x00000000000005a4                main
 .text.libgcc.mul
                0x00000000000005ba        0x0 /usr/local/Cellar/avr-gcc/4.7.2/lib/gcc/avr/4.7.2/avr25/tiny-stack/libgcc.a(_exit.o)
 .text.libgcc.div
                0x00000000000005ba        0x0 /usr/local/Cellar/avr-gcc/4.7.2/lib/gcc/avr/4.7.2/avr25/tiny-stack/libgcc.a(_exit.o)
 .text.libgcc   0x00000000000005ba        0x0 /usr/local/Cellar/avr-gcc/4.7.2/lib/gcc/avr/4.7.2/avr25/tiny-stack/libgcc.a(_exit.o)
 .text.libgcc.prologue
                0x00000000000005ba        0x0 /usr/local/Cellar/avr-gcc/4.7.2/lib/gcc/avr/4.7.2/avr25/tiny-stack/libgcc.a(_exit.o)
 .text.libgcc.builtins
                0x00000000000005ba        0x0 /usr/local/Cellar/avr-gcc/4.7.2/lib/gcc/avr/4.7.2/avr25/tiny-stack/libgcc.a(_exit.o)
 .text.libgcc.fmul
                0x00000000000005ba        0x0 /usr/local/Cellar/avr-gcc/4.7.2/lib/gcc/avr/4.7.2/avr25/tiny-stack/libgcc.a(_exit.o)
 .text.libgcc.mul
                0x00000000000005ba        0x0 /usr/local/Cellar/avr-gcc/4.7.2/lib/gcc/avr/4.7.2/avr25/tiny-stack/libgcc.a(_copy_data.o)
 .text.libgcc.div
                0x00000000000005ba        0x0 /usr/local/Cellar/avr-gcc/4.7.2/lib/gcc/avr/4.7.2/avr25/tiny-stack/libgcc.a(_copy_data.o)
 .text.libgcc   0x00000000000005ba        0x0 /usr/local/Cellar/avr-gcc/4.7.2/lib/gcc/avr/4.7.2/avr25/tiny-stack/libgcc.a(_copy_data.o)
 .text.libgcc.prologue
                0x00000000000005ba        0x0 /usr/local/Cellar/avr-gcc/4.7.2/lib/gcc/avr/4.7.2/avr25/tiny-stack/libgcc.a(_copy_data.o)
 .text.libgcc.builtins
                0x00000000000005ba        0x0 /usr/local/Cellar/avr-gcc/4.7.2/lib/gcc/avr/4.7.2/avr25/tiny-stack/libgcc.a(_copy_data.o)
 .text.libgcc.fmul
                0x00000000000005ba        0x0 /usr/local/Cellar/avr-gcc/4.7.2/lib/gcc/avr/4.7.2/avr25/tiny-stack/libgcc.a(_copy_data.o)
 .text.libgcc.mul
                0x00000000000005ba        0x0 /usr/local/Cellar/avr-gcc/4.7.2/lib/gcc/avr/4.7.2/avr25/tiny-stack/libgcc.a(_clear_bss.o)
 .text.libgcc.div
                0x00000000000005ba        0x0 /usr/local/Cellar/avr-gcc/4.7.2/lib/gcc/avr/4.7.2/avr25/tiny-stack/libgcc.a(_clear_bss.o)
 .text.libgcc   0x00000000000005ba        0x0 /usr/local/Cellar/avr-gcc/4.7.2/lib/gcc/avr/4.7.2/avr25/tiny-stack/libgcc.a(_clear_bss.o)
 .text.libgcc.prologue
                0x00000000000005ba        0x0 /usr/local/Cellar/avr-gcc/4.7.2/lib/gcc/avr/4.7.2/avr25/tiny-stack/libgcc.a(_clear_bss.o)
 .text.libgcc.builtins
                0x00000000000005ba        0x0 /usr/local/Cellar/avr-gcc/4.7.2/lib/gcc/avr/4.7.2/avr25/tiny-stack/libgcc.a(_clear_bss.o)
 .text.libgcc.fmul
                0x00000000000005ba        0x0 /usr/local/Cellar/avr-gcc/4.7.2/lib/gcc/avr/4.7.2/avr25/tiny-stack/libgcc.a(_clear_bss.o)
                0x00000000000005ba                . = ALIGN (0x2)
 *(.fini9)
 .fini9         0x00000000000005ba        0x0 /usr/local/Cellar/avr-gcc/4.7.2/lib/gcc/avr/4.7.2/avr25/tiny-stack/libgcc.a(_exit.o)
                0x00000000000005ba                exit
                0x00000000000005ba                _exit
 *(.fini9)
 *(.fini8)
 *(.fini8)
 *(.fini7)
 *(.fini7)
 *(.fini6)
 *(.fini6)
 *(.fini5)
 *(.fini5)
 *(.fini4)
 *(.fini4)
 *(.fini3)
 *(.fini3)
 *(.fini2)
 *(.fini2)
 *(.fini1)
 *(.fini1)
 *(.fini0)
 .fini0         0x00000000000005ba        0x4 /usr/local/Cellar/avr-gcc/4.7.2/lib/gcc/avr/4.7.2/avr25/tiny-stack/libgcc.a(_exit.o)
 *(.fini0)
                0x00000000000005be                _etext = .

.data           0x0000000000800060        0x2 load address 0x00000000000005be
                0x0000000000800060                PROVIDE (__data_start, .)
 *(.data)
 .data          0x0000000000800060        0x0 /usr/local/Cellar/avr-gcc/4.7.2/lib/gcc/avr/4.7.2/../../../../avr/lib/crttn24.o
 .data          0x0000000000800060        0x2 ambient-attx4.o
                0x0000000000800060                checksum
 .data          0x0000000000800062        0x0 /usr/local/Cellar/avr-gcc/4.7.2/lib/gcc/avr/4.7.2/avr25/tiny-stack/libgcc.a(_exit.o)
 .data          0x0000000000800062        0x0 /usr/local/Cellar/avr-gcc/4.7.2/lib/gcc/avr/4.7.2/avr25/tiny-stack/libgcc.a(_copy_data.o)
 .data          0x0000000000800062        0x0 /usr/local/Cellar/avr-gcc/4.7.2/lib/gcc/avr/4.7.2/avr25/tiny-stack/libgcc.a(_clear_bss.o)
 *(.data*)
 *(.rodata)
 *(.rodata*)
 *(.gnu.linkonce.d*)
                0x0000000000800062                . = ALIGN (0x2)
                0x0000000000800062                _edata = .
                0x0000000000800062                PROVIDE (__data_end, .)

.bss            0x0000000000800062       0x36
                0x0000000000800062                PROVIDE (__bss_start, .)
 *(.bss)
 .bss           0x0000000000800062        0x0 /usr/local/Cellar/avr-gcc/4.7.2/lib/gcc/avr/4.7.2/../../../../avr/lib/crttn24.o
 .bss           0x0000000000800062        0xa ambient-attx4.o
                0x0000000000800062                soundTriggerReadVal
                0x0000000000800064                soundTrigger
                0x0000000000800066                lightTriggerReadVal
                0x0000000000800068                lightTrigger
                0x000000000080006a                counter
 .bss           0x000000000080006c        0x0 /usr/local/Cellar/avr-gcc/4.7.2/lib/gcc/avr/4.7.2/avr25/tiny-stack/libgcc.a(_exit.o)
 .bss           0x000000000080006c        0x0 /usr/local/Cellar/avr-gcc/4.7.2/lib/gcc/avr/4.7.2/avr25/tiny-stack/libgcc.a(_copy_data.o)
 .bss           0x000000000080006c        0x0 /usr/local/Cellar/avr-gcc/4.7.2/lib/gcc/avr/4.7.2/avr25/tiny-stack/libgcc.a(_clear_bss.o)
 *(.bss*)
 *(COMMON)
 COMMON         0x000000000080006c       0x2c ambient-attx4.o
                0x000000000080006c                LightBuffer
                0x0000000000800081                SoundBuffer
                0x0000000000800096                storedUSIDR
                0x0000000000800097                spiX_status
                0x0000000000800098                PROVIDE (__bss_end, .)
                0x00000000000005be                __data_load_start = LOADADDR (.data)
                0x00000000000005c0                __data_load_end = (__data_load_start + SIZEOF (.data))

.noinit         0x0000000000800098        0x0
                0x0000000000800098                PROVIDE (__noinit_start, .)
 *(.noinit*)
                0x0000000000800098                PROVIDE (__noinit_end, .)
                0x0000000000800098                _end = .
                0x0000000000800098                PROVIDE (__heap_start, .)

.eeprom         0x0000000000810000        0x0
 *(.eeprom*)
                0x0000000000810000                __eeprom_end = .

.fuse
 *(.fuse)
 *(.lfuse)
 *(.hfuse)
 *(.efuse)

.lock
 *(.lock*)

.signature
 *(.signature*)

.stab           0x0000000000000000      0x6b4
 *(.stab)
 .stab          0x0000000000000000      0x6b4 /usr/local/Cellar/avr-gcc/4.7.2/lib/gcc/avr/4.7.2/../../../../avr/lib/crttn24.o

.stabstr        0x0000000000000000       0x81
 *(.stabstr)
 .stabstr       0x0000000000000000       0x81 /usr/local/Cellar/avr-gcc/4.7.2/lib/gcc/avr/4.7.2/../../../../avr/lib/crttn24.o

.stab.excl
 *(.stab.excl)

.stab.exclstr
 *(.stab.exclstr)

.stab.index
 *(.stab.index)

.stab.indexstr
 *(.stab.indexstr)

.comment        0x0000000000000000       0x11
 *(.comment)
 .comment       0x0000000000000000       0x11 ambient-attx4.o
                                         0x12 (size before relaxing)

.debug
 *(.debug)

.line
 *(.line)

.debug_srcinfo
 *(.debug_srcinfo)

.debug_sfnames
 *(.debug_sfnames)

.debug_aranges  0x0000000000000000       0x88
 *(.debug_aranges)
 .debug_aranges
                0x0000000000000000       0x28 ambient-attx4.o
 .debug_aranges
                0x0000000000000028       0x20 /usr/local/Cellar/avr-gcc/4.7.2/lib/gcc/avr/4.7.2/avr25/tiny-stack/libgcc.a(_exit.o)
 .debug_aranges
                0x0000000000000048       0x20 /usr/local/Cellar/avr-gcc/4.7.2/lib/gcc/avr/4.7.2/avr25/tiny-stack/libgcc.a(_copy_data.o)
 .debug_aranges
                0x0000000000000068       0x20 /usr/local/Cellar/avr-gcc/4.7.2/lib/gcc/avr/4.7.2/avr25/tiny-stack/libgcc.a(_clear_bss.o)

.debug_pubnames
 *(.debug_pubnames)

.debug_info     0x0000000000000000      0x907
 *(.debug_info)
 .debug_info    0x0000000000000000      0x736 ambient-attx4.o
 .debug_info    0x0000000000000736       0x9b /usr/local/Cellar/avr-gcc/4.7.2/lib/gcc/avr/4.7.2/avr25/tiny-stack/libgcc.a(_exit.o)
 .debug_info    0x00000000000007d1       0x9b /usr/local/Cellar/avr-gcc/4.7.2/lib/gcc/avr/4.7.2/avr25/tiny-stack/libgcc.a(_copy_data.o)
 .debug_info    0x000000000000086c       0x9b /usr/local/Cellar/avr-gcc/4.7.2/lib/gcc/avr/4.7.2/avr25/tiny-stack/libgcc.a(_clear_bss.o)
 *(.gnu.linkonce.wi.*)

.debug_abbrev   0x0000000000000000      0x317
 *(.debug_abbrev)
 .debug_abbrev  0x0000000000000000      0x2db ambient-attx4.o
 .debug_abbrev  0x00000000000002db       0x14 /usr/local/Cellar/avr-gcc/4.7.2/lib/gcc/avr/4.7.2/avr25/tiny-stack/libgcc.a(_exit.o)
 .debug_abbrev  0x00000000000002ef       0x14 /usr/local/Cellar/avr-gcc/4.7.2/lib/gcc/avr/4.7.2/avr25/tiny-stack/libgcc.a(_copy_data.o)
 .debug_abbrev  0x0000000000000303       0x14 /usr/local/Cellar/avr-gcc/4.7.2/lib/gcc/avr/4.7.2/avr25/tiny-stack/libgcc.a(_clear_bss.o)

.debug_line     0x0000000000000000      0x327
 *(.debug_line)
 .debug_line    0x0000000000000000      0x1fe ambient-attx4.o
 .debug_line    0x00000000000001fe       0x5e /usr/local/Cellar/avr-gcc/4.7.2/lib/gcc/avr/4.7.2/avr25/tiny-stack/libgcc.a(_exit.o)
 .debug_line    0x000000000000025c       0x67 /usr/local/Cellar/avr-gcc/4.7.2/lib/gcc/avr/4.7.2/avr25/tiny-stack/libgcc.a(_copy_data.o)
 .debug_line    0x00000000000002c3       0x64 /usr/local/Cellar/avr-gcc/4.7.2/lib/gcc/avr/4.7.2/avr25/tiny-stack/libgcc.a(_clear_bss.o)

.debug_frame    0x0000000000000000      0x250
 *(.debug_frame)
 .debug_frame   0x0000000000000000      0x250 ambient-attx4.o

.debug_str      0x0000000000000000      0x2c2
 *(.debug_str)
 .debug_str     0x0000000000000000      0x2c2 ambient-attx4.o
                                        0x2fb (size before relaxing)

.debug_loc      0x0000000000000000      0x572
 *(.debug_loc)
 .debug_loc     0x0000000000000000      0x572 ambient-attx4.o

.debug_macinfo
 *(.debug_macinfo)

.debug_pubtypes
 *(.debug_pubtypes)

.debug_ranges   0x0000000000000000       0x18
 *(.debug_ranges)
 .debug_ranges  0x0000000000000000       0x18 ambient-attx4.o

.debug_macro
 *(.debug_macro)
OUTPUT(ambient-attx4.elf elf32-avr)
LOAD linker stubs

Cross Reference Table

Symbol                                            File
LightBuffer                                       ambient-attx4.o
SoundBuffer                                       ambient-attx4.o
__bad_interrupt                                   /usr/local/Cellar/avr-gcc/4.7.2/lib/gcc/avr/4.7.2/../../../../avr/lib/crttn24.o
__bss_end                                         /usr/local/Cellar/avr-gcc/4.7.2/lib/gcc/avr/4.7.2/avr25/tiny-stack/libgcc.a(_clear_bss.o)
__bss_start                                       /usr/local/Cellar/avr-gcc/4.7.2/lib/gcc/avr/4.7.2/avr25/tiny-stack/libgcc.a(_clear_bss.o)
__data_end                                        /usr/local/Cellar/avr-gcc/4.7.2/lib/gcc/avr/4.7.2/avr25/tiny-stack/libgcc.a(_copy_data.o)
__data_load_start                                 /usr/local/Cellar/avr-gcc/4.7.2/lib/gcc/avr/4.7.2/avr25/tiny-stack/libgcc.a(_copy_data.o)
__data_start                                      /usr/local/Cellar/avr-gcc/4.7.2/lib/gcc/avr/4.7.2/avr25/tiny-stack/libgcc.a(_copy_data.o)
__do_clear_bss                                    /usr/local/Cellar/avr-gcc/4.7.2/lib/gcc/avr/4.7.2/avr25/tiny-stack/libgcc.a(_clear_bss.o)
                                                  ambient-attx4.o
__do_copy_data                                    /usr/local/Cellar/avr-gcc/4.7.2/lib/gcc/avr/4.7.2/avr25/tiny-stack/libgcc.a(_copy_data.o)
                                                  ambient-attx4.o
__heap_end                                        /usr/local/Cellar/avr-gcc/4.7.2/lib/gcc/avr/4.7.2/../../../../avr/lib/crttn24.o
__init                                            /usr/local/Cellar/avr-gcc/4.7.2/lib/gcc/avr/4.7.2/../../../../avr/lib/crttn24.o
__stack                                           /usr/local/Cellar/avr-gcc/4.7.2/lib/gcc/avr/4.7.2/../../../../avr/lib/crttn24.o
__vector_1                                        ambient-attx4.o
                                                  /usr/local/Cellar/avr-gcc/4.7.2/lib/gcc/avr/4.7.2/../../../../avr/lib/crttn24.o
__vector_10                                       /usr/local/Cellar/avr-gcc/4.7.2/lib/gcc/avr/4.7.2/../../../../avr/lib/crttn24.o
__vector_11                                       /usr/local/Cellar/avr-gcc/4.7.2/lib/gcc/avr/4.7.2/../../../../avr/lib/crttn24.o
__vector_12                                       /usr/local/Cellar/avr-gcc/4.7.2/lib/gcc/avr/4.7.2/../../../../avr/lib/crttn24.o
__vector_13                                       /usr/local/Cellar/avr-gcc/4.7.2/lib/gcc/avr/4.7.2/../../../../avr/lib/crttn24.o
__vector_14                                       /usr/local/Cellar/avr-gcc/4.7.2/lib/gcc/avr/4.7.2/../../../../avr/lib/crttn24.o
__vector_15                                       /usr/local/Cellar/avr-gcc/4.7.2/lib/gcc/avr/4.7.2/../../../../avr/lib/crttn24.o
__vector_16                                       ambient-attx4.o
                                                  /usr/local/Cellar/avr-gcc/4.7.2/lib/gcc/avr/4.7.2/../../../../avr/lib/crttn24.o
__vector_2                                        /usr/local/Cellar/avr-gcc/4.7.2/lib/gcc/avr/4.7.2/../../../../avr/lib/crttn24.o
__vector_3                                        /usr/local/Cellar/avr-gcc/4.7.2/lib/gcc/avr/4.7.2/../../../../avr/lib/crttn24.o
__vector_4                                        /usr/local/Cellar/avr-gcc/4.7.2/lib/gcc/avr/4.7.2/../../../../avr/lib/crttn24.o
__vector_5                                        /usr/local/Cellar/avr-gcc/4.7.2/lib/gcc/avr/4.7.2/../../../../avr/lib/crttn24.o
__vector_6                                        ambient-attx4.o
                                                  /usr/local/Cellar/avr-gcc/4.7.2/lib/gcc/avr/4.7.2/../../../../avr/lib/crttn24.o
__vector_7                                        /usr/local/Cellar/avr-gcc/4.7.2/lib/gcc/avr/4.7.2/../../../../avr/lib/crttn24.o
__vector_8                                        /usr/local/Cellar/avr-gcc/4.7.2/lib/gcc/avr/4.7.2/../../../../avr/lib/crttn24.o
__vector_9                                        ambient-attx4.o
                                                  /usr/local/Cellar/avr-gcc/4.7.2/lib/gcc/avr/4.7.2/../../../../avr/lib/crttn24.o
__vector_default                                  /usr/local/Cellar/avr-gcc/4.7.2/lib/gcc/avr/4.7.2/../../../../avr/lib/crttn24.o
__vectors                                         /usr/local/Cellar/avr-gcc/4.7.2/lib/gcc/avr/4.7.2/../../../../avr/lib/crttn24.o
_exit                                             /usr/local/Cellar/avr-gcc/4.7.2/lib/gcc/avr/4.7.2/avr25/tiny-stack/libgcc.a(_exit.o)
                                                  ambient-attx4.o
analogRead                                        ambient-attx4.o
bufferForCommand                                  ambient-attx4.o
checksum                                          ambient-attx4.o
counter                                           ambient-attx4.o
crc16                                             ambient-attx4.o
enableSPI                                         ambient-attx4.o
exit                                              /usr/local/Cellar/avr-gcc/4.7.2/lib/gcc/avr/4.7.2/avr25/tiny-stack/libgcc.a(_exit.o)
                                                  /usr/local/Cellar/avr-gcc/4.7.2/lib/gcc/avr/4.7.2/../../../../avr/lib/crttn24.o
lightTrigger                                      ambient-attx4.o
lightTriggerReadVal                               ambient-attx4.o
main                                              ambient-attx4.o
                                                  /usr/local/Cellar/avr-gcc/4.7.2/lib/gcc/avr/4.7.2/../../../../avr/lib/crttn24.o
prepareADC                                        ambient-attx4.o
setup                                             ambient-attx4.o
setupIO                                           ambient-attx4.o
setupTimer                                        ambient-attx4.o
soundTrigger                                      ambient-attx4.o
soundTriggerReadVal                               ambient-attx4.o
spiX_get                                          ambient-attx4.o
spiX_initmaster                                   ambient-attx4.o
spiX_initslave                                    ambient-attx4.o
spiX_put                                          ambient-attx4.o
spiX_status                                       ambient-attx4.o
spiX_wait                                         ambient-attx4.o
storedUSIDR                                       ambient-attx4.o
triggerValueForCommand                            ambient-attx4.o
